Certificate:
    Data:
        Version: 3 (0x2)
        Serial Number:
            c9:af:51:28:c0:fd:f5:3c:1c:36:8d:73:a4:08:79:e0
        Signature Algorithm: ecdsa-with-SHA256
        Issuer: CN=ChangeMe
        Validity
            Not Before: Mar  7 17:25:13 2022 GMT
            Not After : Mar  4 17:25:13 2032 GMT
        Subject: CN=client1
        Subject Public Key Info:
            Public Key Algorithm: id-ecPublicKey
                Public-Key: (521 bit)
                pub:
                    04:00:44:0b:b2:b0:6a:fb:7c:b1:9c:29:9e:57:3f:
                    67:e2:95:2f:8b:f6:01:de:08:74:a9:b0:02:8d:5a:
                    e7:68:cf:bf:21:8f:8b:59:34:af:a3:1c:69:c1:3d:
                    f2:9b:1b:6c:d6:48:19:1d:19:76:2a:d5:5d:8c:b1:
                    2f:cc:85:8a:41:50:19:00:4e:6e:3f:68:c9:89:61:
                    8c:b4:ca:da:c0:cb:47:f4:d3:65:2a:04:e0:47:13:
                    bd:ec:44:e5:e4:89:0c:c1:50:51:ad:db:40:30:42:
                    05:fa:39:ae:e6:47:f4:14:d9:fa:47:21:da:a4:1a:
                    23:b0:96:fe:d6:6f:b3:0a:04:d5:17:6f:9f
                ASN1 OID: secp521r1
                NIST CURVE: P-521
        X509v3 extensions:
            X509v3 Basic Constraints: 
                CA:FALSE
            X509v3 Subject Key Identifier: 
                4A:71:BA:E6:58:C8:CB:DE:F2:A7:0E:49:4E:EB:EA:67:10:FF:93:1E
            X509v3 Authority Key Identifier: 
                keyid:D8:D9:D9:ED:0E:7E:53:0F:F6:98:32:AA:23:D3:53:99:56:BA:56:C2
                DirName:/CN=ChangeMe
                serial:27:F2:3B:25:B0:71:D9:A8:17:47:4E:96:F2:79:DF:0D:65:AC:7C:64

            X509v3 Extended Key Usage: 
                TLS Web Client Authentication
            X509v3 Key Usage: 
                Digital Signature
    Signature Algorithm: ecdsa-with-SHA256
         30:81:87:02:41:08:57:8e:20:a6:1d:13:8c:c0:7e:34:be:d7:
         63:19:6b:b9:81:bb:68:9b:60:bc:bb:98:64:2f:52:49:c7:b3:
         f1:f3:1c:33:e0:02:22:21:cd:36:73:2d:18:b2:08:ed:93:75:
         d6:42:a6:8f:97:5f:b4:ea:9e:38:a4:a2:16:98:de:12:02:42:
         01:e0:b5:ce:64:b0:47:f9:e1:92:4b:a8:7c:5b:46:5e:5a:a5:
         65:59:01:e2:2b:2c:45:b3:e4:2b:5f:ad:81:58:d4:f3:b9:bd:
         46:ec:35:5a:41:80:a1:3a:62:b3:a7:d0:4d:44:2d:74:1c:62:
         eb:ad:b5:ba:95:23:ed:4b:28:44:7f:fc
-----BEGIN CERTIFICATE-----
MIICSzCCAa2gAwIBAgIRAMmvUSjA/fU8HDaNc6QIeeAwCgYIKoZIzj0EAwIwEzER
MA8GA1UEAwwIQ2hhbmdlTWUwHhcNMjIwMzA3MTcyNTEzWhcNMzIwMzA0MTcyNTEz
WjASMRAwDgYDVQQDDAdjbGllbnQxMIGbMBAGByqGSM49AgEGBSuBBAAjA4GGAAQA
RAuysGr7fLGcKZ5XP2filS+L9gHeCHSpsAKNWudoz78hj4tZNK+jHGnBPfKbG2zW
SBkdGXYq1V2MsS/MhYpBUBkATm4/aMmJYYy0ytrAy0f002UqBOBHE73sROXkiQzB
UFGt20AwQgX6Oa7mR/QU2fpHIdqkGiOwlv7Wb7MKBNUXb5+jgZ8wgZwwCQYDVR0T
BAIwADAdBgNVHQ4EFgQUSnG65ljIy97ypw5JTuvqZxD/kx4wTgYDVR0jBEcwRYAU
2NnZ7Q5+Uw/2mDKqI9NTmVa6VsKhF6QVMBMxETAPBgNVBAMMCENoYW5nZU1lghQn
8jslsHHZqBdHTpbyed8NZax8ZDATBgNVHSUEDDAKBggrBgEFBQcDAjALBgNVHQ8E
BAMCB4AwCgYIKoZIzj0EAwIDgYsAMIGHAkEIV44gph0TjMB+NL7XYxlruYG7aJtg
vLuYZC9SScez8fMcM+ACIiHNNnMtGLII7ZN11kKmj5dftOqeOKSiFpjeEgJCAeC1
zmSwR/nhkkuofFtGXlqlZVkB4issRbPkK1+tgVjU87m9Ruw1WkGAoTpis6fQTUQt
dBxi6621upUj7UsoRH/8
-----END CERTIFICATE-----
