Certificate:
    Data:
        Version: 3 (0x2)
        Serial Number:
            d4:d1:e9:74:2e:db:57:4d:5a:fd:6d:e6:46:d5:b7:34
        Signature Algorithm: ecdsa-with-SHA256
        Issuer: CN=ChangeMe
        Validity
            Not Before: Mar  7 17:25:14 2022 GMT
            Not After : Mar  4 17:25:14 2032 GMT
        Subject: CN=client2
        Subject Public Key Info:
            Public Key Algorithm: id-ecPublicKey
                Public-Key: (521 bit)
                pub:
                    04:00:24:d8:5c:3a:f8:df:38:0a:e2:60:8c:d6:41:
                    cc:c6:e8:7c:ee:44:87:27:d8:79:cd:ee:0f:28:90:
                    29:d2:dd:51:b1:90:e4:34:99:12:c4:0b:c9:27:d6:
                    e9:10:3c:f1:6b:e3:55:c2:26:18:b6:50:1d:52:f3:
                    ea:17:3f:a7:94:eb:b9:01:1c:f3:6d:33:49:7b:a6:
                    28:ea:d6:ec:b4:a6:8f:a9:88:38:89:a2:7a:26:df:
                    a5:b3:5a:60:d1:46:6b:27:1a:59:6f:f9:f7:ce:5c:
                    b6:c3:45:bf:26:6c:e1:8f:73:6f:d7:31:1a:6c:8a:
                    c0:78:b2:07:56:0d:f4:1f:e1:30:20:69:33
                ASN1 OID: secp521r1
                NIST CURVE: P-521
        X509v3 extensions:
            X509v3 Basic Constraints: 
                CA:FALSE
            X509v3 Subject Key Identifier: 
                07:44:4E:27:8B:DA:32:3E:92:6E:E6:A6:4B:98:CE:99:90:63:58:14
            X509v3 Authority Key Identifier: 
                keyid:D8:D9:D9:ED:0E:7E:53:0F:F6:98:32:AA:23:D3:53:99:56:BA:56:C2
                DirName:/CN=ChangeMe
                serial:27:F2:3B:25:B0:71:D9:A8:17:47:4E:96:F2:79:DF:0D:65:AC:7C:64

            X509v3 Extended Key Usage: 
                TLS Web Client Authentication
            X509v3 Key Usage: 
                Digital Signature
    Signature Algorithm: ecdsa-with-SHA256
         30:81:88:02:42:01:ed:2f:cd:4c:4d:2c:24:3b:ac:4c:b2:3b:
         8d:54:ab:e1:7e:40:eb:a1:1f:85:42:08:ca:51:d4:65:6b:2c:
         2b:b3:ab:45:7d:d4:e8:e2:0d:da:07:ee:a4:91:94:d6:a6:2b:
         24:4e:1e:33:a7:ad:f1:7c:3a:ac:ce:01:68:07:61:c2:c2:02:
         42:00:d4:9d:76:1b:fd:b3:27:5c:79:68:f8:31:b3:19:04:6f:
         a1:e9:db:c4:36:fd:2b:9e:b1:84:f0:1c:d3:9b:5b:1d:91:5e:
         f0:bf:22:f6:6d:10:5d:ba:84:a2:f9:50:23:fc:12:b8:bc:4c:
         21:05:03:89:29:6e:e4:2d:05:27:fb:8d:37
-----BEGIN CERTIFICATE-----
MIICTDCCAa2gAwIBAgIRANTR6XQu21dNWv1t5kbVtzQwCgYIKoZIzj0EAwIwEzER
MA8GA1UEAwwIQ2hhbmdlTWUwHhcNMjIwMzA3MTcyNTE0WhcNMzIwMzA0MTcyNTE0
WjASMRAwDgYDVQQDDAdjbGllbnQyMIGbMBAGByqGSM49AgEGBSuBBAAjA4GGAAQA
JNhcOvjfOAriYIzWQczG6HzuRIcn2HnN7g8okCnS3VGxkOQ0mRLEC8kn1ukQPPFr
41XCJhi2UB1S8+oXP6eU67kBHPNtM0l7pijq1uy0po+piDiJonom36WzWmDRRmsn
Gllv+ffOXLbDRb8mbOGPc2/XMRpsisB4sgdWDfQf4TAgaTOjgZ8wgZwwCQYDVR0T
BAIwADAdBgNVHQ4EFgQUB0ROJ4vaMj6SbuamS5jOmZBjWBQwTgYDVR0jBEcwRYAU
2NnZ7Q5+Uw/2mDKqI9NTmVa6VsKhF6QVMBMxETAPBgNVBAMMCENoYW5nZU1lghQn
8jslsHHZqBdHTpbyed8NZax8ZDATBgNVHSUEDDAKBggrBgEFBQcDAjALBgNVHQ8E
BAMCB4AwCgYIKoZIzj0EAwIDgYwAMIGIAkIB7S/NTE0sJDusTLI7jVSr4X5A66Ef
hUIIylHUZWssK7OrRX3U6OIN2gfupJGU1qYrJE4eM6et8Xw6rM4BaAdhwsICQgDU
nXYb/bMnXHlo+DGzGQRvoenbxDb9K56xhPAc05tbHZFe8L8i9m0QXbqEovlQI/wS
uLxMIQUDiSlu5C0FJ/uNNw==
-----END CERTIFICATE-----
