Certificate:
    Data:
        Version: 3 (0x2)
        Serial Number:
            eb:f4:59:ae:41:fa:f8:68:8f:97:6e:cc:97:21:03:6d
        Signature Algorithm: ecdsa-with-SHA256
        Issuer: CN=ChangeMe
        Validity
            Not Before: Mar  7 17:25:13 2022 GMT
            Not After : Mar  4 17:25:13 2032 GMT
        Subject: CN=server1
        Subject Public Key Info:
            Public Key Algorithm: id-ecPublicKey
                Public-Key: (521 bit)
                pub:
                    04:01:cb:b5:06:89:ce:89:10:a2:b0:09:79:50:8d:
                    25:6d:2e:a3:c6:f8:a7:34:0b:75:48:ae:39:09:01:
                    82:a8:a9:06:f6:67:d3:72:66:c7:dc:41:c1:66:13:
                    c3:8b:c9:3b:d8:ea:79:3b:7a:b3:bb:3a:60:8c:eb:
                    24:4b:00:0a:e8:6e:a6:01:32:55:69:cf:5d:2f:49:
                    26:41:64:e5:2e:9c:ed:00:47:6a:a3:86:4e:96:ee:
                    4c:de:24:26:ac:61:16:db:69:e0:a9:68:20:b0:17:
                    a2:c9:bb:5d:77:74:82:a7:c2:eb:62:2d:f5:53:a9:
                    30:e6:c6:1a:04:3e:9b:86:0c:8d:2b:34:fb
                ASN1 OID: secp521r1
                NIST CURVE: P-521
        X509v3 extensions:
            X509v3 Basic Constraints: 
                CA:FALSE
            X509v3 Subject Key Identifier: 
                23:0E:15:B4:39:5A:EE:A9:A5:B4:25:D6:F1:42:AD:79:FB:E6:8F:06
            X509v3 Authority Key Identifier: 
                keyid:D8:D9:D9:ED:0E:7E:53:0F:F6:98:32:AA:23:D3:53:99:56:BA:56:C2
                DirName:/CN=ChangeMe
                serial:27:F2:3B:25:B0:71:D9:A8:17:47:4E:96:F2:79:DF:0D:65:AC:7C:64

            X509v3 Extended Key Usage: 
                TLS Web Server Authentication
            X509v3 Key Usage: 
                Digital Signature, Key Encipherment
            X509v3 Subject Alternative Name: 
                DNS:server1
    Signature Algorithm: ecdsa-with-SHA256
         30:81:88:02:42:01:17:c4:a6:12:e0:55:12:09:26:61:64:2e:
         87:22:2a:a9:97:9e:cc:35:b6:83:63:58:9d:0b:0c:27:4f:af:
         ed:df:4b:50:9f:e4:aa:e5:56:43:3e:05:cf:67:30:e1:0a:23:
         43:5a:36:4d:dd:6c:4c:bc:f0:17:85:b4:a6:0f:d2:3d:7c:02:
         42:00:b7:b4:b7:d8:b2:dd:ad:d7:cc:c8:a7:74:61:92:8b:8a:
         ba:a9:0b:f5:17:50:c0:84:5e:e5:2e:8c:7b:20:56:b4:dc:00:
         51:fd:83:b5:4b:76:ce:2b:20:19:63:33:fa:cd:72:6e:9d:19:
         96:6e:14:1d:80:52:fa:da:4d:d2:00:69:4f
-----BEGIN CERTIFICATE-----
MIICYDCCAcGgAwIBAgIRAOv0Wa5B+vhoj5duzJchA20wCgYIKoZIzj0EAwIwEzER
MA8GA1UEAwwIQ2hhbmdlTWUwHhcNMjIwMzA3MTcyNTEzWhcNMzIwMzA0MTcyNTEz
WjASMRAwDgYDVQQDDAdzZXJ2ZXIxMIGbMBAGByqGSM49AgEGBSuBBAAjA4GGAAQB
y7UGic6JEKKwCXlQjSVtLqPG+Kc0C3VIrjkJAYKoqQb2Z9NyZsfcQcFmE8OLyTvY
6nk7erO7OmCM6yRLAArobqYBMlVpz10vSSZBZOUunO0AR2qjhk6W7kzeJCasYRbb
aeCpaCCwF6LJu113dIKnwutiLfVTqTDmxhoEPpuGDI0rNPujgbMwgbAwCQYDVR0T
BAIwADAdBgNVHQ4EFgQUIw4VtDla7qmltCXW8UKtefvmjwYwTgYDVR0jBEcwRYAU
2NnZ7Q5+Uw/2mDKqI9NTmVa6VsKhF6QVMBMxETAPBgNVBAMMCENoYW5nZU1lghQn
8jslsHHZqBdHTpbyed8NZax8ZDATBgNVHSUEDDAKBggrBgEFBQcDATALBgNVHQ8E
BAMCBaAwEgYDVR0RBAswCYIHc2VydmVyMTAKBggqhkjOPQQDAgOBjAAwgYgCQgEX
xKYS4FUSCSZhZC6HIiqpl57MNbaDY1idCwwnT6/t30tQn+Sq5VZDPgXPZzDhCiND
WjZN3WxMvPAXhbSmD9I9fAJCALe0t9iy3a3XzMindGGSi4q6qQv1F1DAhF7lLox7
IFa03ABR/YO1S3bOKyAZYzP6zXJunRmWbhQdgFL62k3SAGlP
-----END CERTIFICATE-----
